; ModuleID = 'source-C-CXX/12/1878.cpp'
source_filename = "source-C-CXX/12/1878.cpp"
target datalayout = "e-m:e-p270:32:32-p271:32:32-p272:64:64-i64:64-f80:128-n8:16:32:64-S128"
target triple = "x86_64-pc-linux-gnu"

%"class.std::ios_base::Init" = type { i8 }
%"class.std::basic_istream" = type { i32 (...)**, i64, %"class.std::basic_ios" }
%"class.std::basic_ios" = type { %"class.std::ios_base", %"class.std::basic_ostream"*, i8, i8, %"class.std::basic_streambuf"*, %"class.std::ctype"*, %"class.std::num_put"*, %"class.std::num_get"* }
%"class.std::ios_base" = type { i32 (...)**, i64, i64, i32, i32, i32, %"struct.std::ios_base::_Callback_list"*, %"struct.std::ios_base::_Words", [8 x %"struct.std::ios_base::_Words"], i32, %"struct.std::ios_base::_Words"*, %"class.std::locale" }
%"struct.std::ios_base::_Callback_list" = type { %"struct.std::ios_base::_Callback_list"*, void (i32, %"class.std::ios_base"*, i32)*, i32, i32 }
%"struct.std::ios_base::_Words" = type { i8*, i64 }
%"class.std::locale" = type { %"class.std::locale::_Impl"* }
%"class.std::locale::_Impl" = type { i32, %"class.std::locale::facet"**, i64, %"class.std::locale::facet"**, i8** }
%"class.std::locale::facet" = type <{ i32 (...)**, i32, [4 x i8] }>
%"class.std::basic_ostream" = type { i32 (...)**, %"class.std::basic_ios" }
%"class.std::basic_streambuf" = type { i32 (...)**, i8*, i8*, i8*, i8*, i8*, i8*, %"class.std::locale" }
%"class.std::ctype" = type <{ %"class.std::locale::facet.base", [4 x i8], %struct.__locale_struct*, i8, [7 x i8], i32*, i32*, i16*, i8, [256 x i8], [256 x i8], i8, [6 x i8] }>
%"class.std::locale::facet.base" = type <{ i32 (...)**, i32 }>
%struct.__locale_struct = type { [13 x %struct.__locale_data*], i16*, i32*, i32*, [13 x i8*] }
%struct.__locale_data = type opaque
%"class.std::num_put" = type { %"class.std::locale::facet.base", [4 x i8] }
%"class.std::num_get" = type { %"class.std::locale::facet.base", [4 x i8] }

@_ZStL8__ioinit = internal global %"class.std::ios_base::Init" zeroinitializer, align 1
@__dso_handle = external hidden global i8
@_ZSt3cin = external global %"class.std::basic_istream", align 8
@_ZSt4cout = external global %"class.std::basic_ostream", align 8
@.str = private unnamed_addr constant [2 x i8] c" \00", align 1
@llvm.global_ctors = appending global [1 x { i32, void ()*, i8* }] [{ i32, void ()*, i8* } { i32 65535, void ()* @_GLOBAL__sub_I_1878.cpp, i8* null }]

declare void @_ZNSt8ios_base4InitC1Ev(%"class.std::ios_base::Init"* nonnull align 1 dereferenceable(1)) unnamed_addr #0

; Function Attrs: nounwind
declare void @_ZNSt8ios_base4InitD1Ev(%"class.std::ios_base::Init"* nonnull align 1 dereferenceable(1)) unnamed_addr #1

; Function Attrs: nofree nounwind
declare i32 @__cxa_atexit(void (i8*)*, i8*, i8*) local_unnamed_addr #2

; Function Attrs: mustprogress norecurse sspstrong uwtable
define dso_local i32 @main() local_unnamed_addr #3 {
  %1 = alloca i32, align 4
  %2 = alloca [20002 x i32], align 16
  %3 = alloca [20002 x i32], align 16
  %4 = bitcast i32* %1 to i8*
  call void @llvm.lifetime.start.p0i8(i64 4, i8* nonnull %4) #8
  %5 = bitcast [20002 x i32]* %2 to i8*
  call void @llvm.lifetime.start.p0i8(i64 80008, i8* nonnull %5) #8
  call void @llvm.memset.p0i8.i64(i8* noundef nonnull align 16 dereferenceable(80008) %5, i8 0, i64 80008, i1 false)
  %6 = bitcast [20002 x i32]* %3 to i8*
  call void @llvm.lifetime.start.p0i8(i64 80008, i8* nonnull %6) #8
  call void @llvm.memset.p0i8.i64(i8* noundef nonnull align 16 dereferenceable(80008) %6, i8 0, i64 80008, i1 false)
  %7 = call nonnull align 8 dereferenceable(16) %"class.std::basic_istream"* @_ZNSirsERi(%"class.std::basic_istream"* nonnull align 8 dereferenceable(16) @_ZSt3cin, i32* nonnull align 4 dereferenceable(4) %1)
  %8 = load i32, i32* %1, align 4, !tbaa !5
  %9 = icmp slt i32 %8, 1
  br i1 %9, label %142, label %15

10:                                               ; preds = %15
  %11 = icmp slt i32 %20, 1
  br i1 %11, label %142, label %12

12:                                               ; preds = %10
  %13 = add nuw i32 %20, 1
  %14 = zext i32 %13 to i64
  br label %23

15:                                               ; preds = %0, %15
  %16 = phi i64 [ %19, %15 ], [ 1, %0 ]
  %17 = getelementptr inbounds [20002 x i32], [20002 x i32]* %2, i64 0, i64 %16
  %18 = call nonnull align 8 dereferenceable(16) %"class.std::basic_istream"* @_ZNSirsERi(%"class.std::basic_istream"* nonnull align 8 dereferenceable(16) @_ZSt3cin, i32* nonnull align 4 dereferenceable(4) %17)
  %19 = add nuw nsw i64 %16, 1
  %20 = load i32, i32* %1, align 4, !tbaa !5
  %21 = sext i32 %20 to i64
  %22 = icmp slt i64 %16, %21
  br i1 %22, label %15, label %10, !llvm.loop !9

23:                                               ; preds = %12, %84
  %24 = phi i64 [ 0, %12 ], [ %91, %84 ]
  %25 = phi i64 [ 1, %12 ], [ %89, %84 ]
  %26 = phi i32 [ 0, %12 ], [ %88, %84 ]
  %27 = getelementptr inbounds [20002 x i32], [20002 x i32]* %3, i64 0, i64 %25
  %28 = icmp ugt i64 %25, 1
  br i1 %28, label %29, label %84

29:                                               ; preds = %23
  %30 = getelementptr inbounds [20002 x i32], [20002 x i32]* %2, i64 0, i64 %25
  %31 = load i32, i32* %30, align 4, !tbaa !5
  %32 = icmp ult i64 %24, 8
  br i1 %32, label %72, label %33

33:                                               ; preds = %29
  %34 = and i64 %24, -8
  %35 = or i64 %34, 1
  %36 = insertelement <4 x i32> poison, i32 %31, i32 0
  %37 = shufflevector <4 x i32> %36, <4 x i32> poison, <4 x i32> zeroinitializer
  %38 = insertelement <4 x i32> poison, i32 %31, i32 0
  %39 = shufflevector <4 x i32> %38, <4 x i32> poison, <4 x i32> zeroinitializer
  br label %40

40:                                               ; preds = %67, %33
  %41 = phi i64 [ 0, %33 ], [ %68, %67 ]
  %42 = or i64 %41, 1
  %43 = getelementptr inbounds [20002 x i32], [20002 x i32]* %2, i64 0, i64 %42
  %44 = bitcast i32* %43 to <4 x i32>*
  %45 = load <4 x i32>, <4 x i32>* %44, align 4, !tbaa !5
  %46 = getelementptr inbounds i32, i32* %43, i64 4
  %47 = bitcast i32* %46 to <4 x i32>*
  %48 = load <4 x i32>, <4 x i32>* %47, align 4, !tbaa !5
  %49 = icmp eq <4 x i32> %37, %45
  %50 = icmp eq <4 x i32> %39, %48
  %51 = extractelement <4 x i1> %49, i32 0
  %52 = extractelement <4 x i1> %49, i32 1
  %53 = or i1 %51, %52
  %54 = extractelement <4 x i1> %49, i32 2
  %55 = or i1 %53, %54
  %56 = extractelement <4 x i1> %49, i32 3
  %57 = or i1 %55, %56
  %58 = extractelement <4 x i1> %50, i32 0
  %59 = or i1 %57, %58
  %60 = extractelement <4 x i1> %50, i32 1
  %61 = or i1 %59, %60
  %62 = extractelement <4 x i1> %50, i32 2
  %63 = or i1 %61, %62
  %64 = extractelement <4 x i1> %50, i32 3
  %65 = or i1 %63, %64
  br i1 %65, label %66, label %67

66:                                               ; preds = %40
  store i32 1, i32* %27, align 4, !tbaa !5
  br label %67

67:                                               ; preds = %40, %66
  %68 = add nuw i64 %41, 8
  %69 = icmp eq i64 %68, %34
  br i1 %69, label %70, label %40, !llvm.loop !11

70:                                               ; preds = %67
  %71 = icmp eq i64 %24, %34
  br i1 %71, label %84, label %72

72:                                               ; preds = %29, %70
  %73 = phi i64 [ 1, %29 ], [ %35, %70 ]
  br label %75

74:                                               ; preds = %84
  br i1 %11, label %142, label %92

75:                                               ; preds = %72, %81
  %76 = phi i64 [ %82, %81 ], [ %73, %72 ]
  %77 = getelementptr inbounds [20002 x i32], [20002 x i32]* %2, i64 0, i64 %76
  %78 = load i32, i32* %77, align 4, !tbaa !5
  %79 = icmp eq i32 %31, %78
  br i1 %79, label %80, label %81

80:                                               ; preds = %75
  store i32 1, i32* %27, align 4, !tbaa !5
  br label %81

81:                                               ; preds = %75, %80
  %82 = add nuw nsw i64 %76, 1
  %83 = icmp eq i64 %82, %25
  br i1 %83, label %84, label %75, !llvm.loop !13

84:                                               ; preds = %81, %70, %23
  %85 = load i32, i32* %27, align 4, !tbaa !5
  %86 = icmp eq i32 %85, 0
  %87 = zext i1 %86 to i32
  %88 = add nuw nsw i32 %26, %87
  %89 = add nuw nsw i64 %25, 1
  %90 = icmp eq i64 %89, %14
  %91 = add i64 %24, 1
  br i1 %90, label %74, label %23, !llvm.loop !15

92:                                               ; preds = %74, %136
  %93 = phi i64 [ %138, %136 ], [ 1, %74 ]
  %94 = phi i32 [ %137, %136 ], [ 0, %74 ]
  %95 = getelementptr inbounds [20002 x i32], [20002 x i32]* %3, i64 0, i64 %93
  %96 = load i32, i32* %95, align 4, !tbaa !5
  %97 = icmp eq i32 %96, 1
  br i1 %97, label %136, label %98

98:                                               ; preds = %92
  %99 = add nsw i32 %94, 1
  %100 = icmp eq i32 %99, %88
  %101 = getelementptr inbounds [20002 x i32], [20002 x i32]* %2, i64 0, i64 %93
  %102 = load i32, i32* %101, align 4, !tbaa !5
  %103 = call nonnull align 8 dereferenceable(8) %"class.std::basic_ostream"* @_ZNSolsEi(%"class.std::basic_ostream"* nonnull align 8 dereferenceable(8) @_ZSt4cout, i32 %102)
  br i1 %100, label %106, label %104

104:                                              ; preds = %98
  %105 = call nonnull align 8 dereferenceable(8) %"class.std::basic_ostream"* @_ZSt16__ostream_insertIcSt11char_traitsIcEERSt13basic_ostreamIT_T0_ES6_PKS3_l(%"class.std::basic_ostream"* nonnull align 8 dereferenceable(8) %103, i8* nonnull getelementptr inbounds ([2 x i8], [2 x i8]* @.str, i64 0, i64 0), i64 1)
  br label %136

106:                                              ; preds = %98
  %107 = bitcast %"class.std::basic_ostream"* %103 to i8**
  %108 = load i8*, i8** %107, align 8, !tbaa !16
  %109 = getelementptr i8, i8* %108, i64 -24
  %110 = bitcast i8* %109 to i64*
  %111 = load i64, i64* %110, align 8
  %112 = bitcast %"class.std::basic_ostream"* %103 to i8*
  %113 = add nsw i64 %111, 240
  %114 = getelementptr inbounds i8, i8* %112, i64 %113
  %115 = bitcast i8* %114 to %"class.std::ctype"**
  %116 = load %"class.std::ctype"*, %"class.std::ctype"** %115, align 8, !tbaa !18
  %117 = icmp eq %"class.std::ctype"* %116, null
  br i1 %117, label %118, label %119

118:                                              ; preds = %106
  call void @_ZSt16__throw_bad_castv() #9
  unreachable

119:                                              ; preds = %106
  %120 = getelementptr inbounds %"class.std::ctype", %"class.std::ctype"* %116, i64 0, i32 8
  %121 = load i8, i8* %120, align 8, !tbaa !22
  %122 = icmp eq i8 %121, 0
  br i1 %122, label %126, label %123

123:                                              ; preds = %119
  %124 = getelementptr inbounds %"class.std::ctype", %"class.std::ctype"* %116, i64 0, i32 9, i64 10
  %125 = load i8, i8* %124, align 1, !tbaa !24
  br label %132

126:                                              ; preds = %119
  call void @_ZNKSt5ctypeIcE13_M_widen_initEv(%"class.std::ctype"* nonnull align 8 dereferenceable(570) %116)
  %127 = bitcast %"class.std::ctype"* %116 to i8 (%"class.std::ctype"*, i8)***
  %128 = load i8 (%"class.std::ctype"*, i8)**, i8 (%"class.std::ctype"*, i8)*** %127, align 8, !tbaa !16
  %129 = getelementptr inbounds i8 (%"class.std::ctype"*, i8)*, i8 (%"class.std::ctype"*, i8)** %128, i64 6
  %130 = load i8 (%"class.std::ctype"*, i8)*, i8 (%"class.std::ctype"*, i8)** %129, align 8
  %131 = call signext i8 %130(%"class.std::ctype"* nonnull align 8 dereferenceable(570) %116, i8 signext 10)
  br label %132

132:                                              ; preds = %123, %126
  %133 = phi i8 [ %125, %123 ], [ %131, %126 ]
  %134 = call nonnull align 8 dereferenceable(8) %"class.std::basic_ostream"* @_ZNSo3putEc(%"class.std::basic_ostream"* nonnull align 8 dereferenceable(8) %103, i8 signext %133)
  %135 = call nonnull align 8 dereferenceable(8) %"class.std::basic_ostream"* @_ZNSo5flushEv(%"class.std::basic_ostream"* nonnull align 8 dereferenceable(8) %134)
  br label %136

136:                                              ; preds = %92, %132, %104
  %137 = phi i32 [ %99, %104 ], [ %88, %132 ], [ %94, %92 ]
  %138 = add nuw nsw i64 %93, 1
  %139 = load i32, i32* %1, align 4, !tbaa !5
  %140 = sext i32 %139 to i64
  %141 = icmp slt i64 %93, %140
  br i1 %141, label %92, label %142, !llvm.loop !25

142:                                              ; preds = %136, %10, %0, %74
  call void @llvm.lifetime.end.p0i8(i64 80008, i8* nonnull %6) #8
  call void @llvm.lifetime.end.p0i8(i64 80008, i8* nonnull %5) #8
  call void @llvm.lifetime.end.p0i8(i64 4, i8* nonnull %4) #8
  ret i32 0
}

; Function Attrs: argmemonly mustprogress nofree nosync nounwind willreturn
declare void @llvm.lifetime.start.p0i8(i64 immarg, i8* nocapture) #4

; Function Attrs: argmemonly mustprogress nofree nounwind willreturn writeonly
declare void @llvm.memset.p0i8.i64(i8* nocapture writeonly, i8, i64, i1 immarg) #5

declare nonnull align 8 dereferenceable(16) %"class.std::basic_istream"* @_ZNSirsERi(%"class.std::basic_istream"* nonnull align 8 dereferenceable(16), i32* nonnull align 4 dereferenceable(4)) local_unnamed_addr #0

declare nonnull align 8 dereferenceable(8) %"class.std::basic_ostream"* @_ZNSolsEi(%"class.std::basic_ostream"* nonnull align 8 dereferenceable(8), i32) local_unnamed_addr #0

; Function Attrs: argmemonly mustprogress nofree nosync nounwind willreturn
declare void @llvm.lifetime.end.p0i8(i64 immarg, i8* nocapture) #4

declare nonnull align 8 dereferenceable(8) %"class.std::basic_ostream"* @_ZSt16__ostream_insertIcSt11char_traitsIcEERSt13basic_ostreamIT_T0_ES6_PKS3_l(%"class.std::basic_ostream"* nonnull align 8 dereferenceable(8), i8*, i64) local_unnamed_addr #0

declare nonnull align 8 dereferenceable(8) %"class.std::basic_ostream"* @_ZNSo3putEc(%"class.std::basic_ostream"* nonnull align 8 dereferenceable(8), i8 signext) local_unnamed_addr #0

declare nonnull align 8 dereferenceable(8) %"class.std::basic_ostream"* @_ZNSo5flushEv(%"class.std::basic_ostream"* nonnull align 8 dereferenceable(8)) local_unnamed_addr #0

; Function Attrs: noreturn
declare void @_ZSt16__throw_bad_castv() local_unnamed_addr #6

declare void @_ZNKSt5ctypeIcE13_M_widen_initEv(%"class.std::ctype"* nonnull align 8 dereferenceable(570)) local_unnamed_addr #0

; Function Attrs: sspstrong uwtable
define internal void @_GLOBAL__sub_I_1878.cpp() #7 section ".text.startup" {
  tail call void @_ZNSt8ios_base4InitC1Ev(%"class.std::ios_base::Init"* nonnull align 1 dereferenceable(1) @_ZStL8__ioinit)
  %1 = tail call i32 @__cxa_atexit(void (i8*)* bitcast (void (%"class.std::ios_base::Init"*)* @_ZNSt8ios_base4InitD1Ev to void (i8*)*), i8* getelementptr inbounds (%"class.std::ios_base::Init", %"class.std::ios_base::Init"* @_ZStL8__ioinit, i64 0, i32 0), i8* nonnull @__dso_handle) #8
  ret void
}


!llvm.module.flags = !{!0, !1, !2, !3}
!llvm.ident = !{!4}

!0 = !{i32 1, !"wchar_size", i32 4}
!1 = !{i32 7, !"PIC Level", i32 2}
!2 = !{i32 7, !"PIE Level", i32 2}
!3 = !{i32 7, !"uwtable", i32 1}
!4 = !{!"clang version 13.0.0"}
!5 = !{!6, !6, i64 0}
!6 = !{!"int", !7, i64 0}
!7 = !{!"omnipotent char", !8, i64 0}
!8 = !{!"Simple C++ TBAA"}
!9 = distinct !{!9, !10}
!10 = !{!"llvm.loop.mustprogress"}
!11 = distinct !{!11, !10, !12}
!12 = !{!"llvm.loop.isvectorized", i32 1}
!13 = distinct !{!13, !10, !14, !12}
!14 = !{!"llvm.loop.unroll.runtime.disable"}
!15 = distinct !{!15, !10}
!16 = !{!17, !17, i64 0}
!17 = !{!"vtable pointer", !8, i64 0}
!18 = !{!19, !20, i64 240}
!19 = !{!"_ZTSSt9basic_iosIcSt11char_traitsIcEE", !20, i64 216, !7, i64 224, !21, i64 225, !20, i64 232, !20, i64 240, !20, i64 248, !20, i64 256}
!20 = !{!"any pointer", !7, i64 0}
!21 = !{!"bool", !7, i64 0}
!22 = !{!23, !7, i64 56}
!23 = !{!"_ZTSSt5ctypeIcE", !20, i64 16, !21, i64 24, !20, i64 32, !20, i64 40, !20, i64 48, !7, i64 56, !7, i64 57, !7, i64 313, !7, i64 569}
!24 = !{!7, !7, i64 0}
!25 = distinct !{!25, !10}
